target datalayout = "e-m:e-p270:32:32-p271:32:32-p272:64:64-i64:64-i128:128-f80:128-n8:16:32:64-S128"
target triple = "x86_64-pc-linux-gnu"

%struct.hwloc_topology = type { i32, i32, i32, ptr, ptr, i64, [20 x i32], [20 x i32], i64, i64, i32, ptr, i64, ptr, i64, [6 x %struct.hwloc_special_level_s], ptr, ptr, %struct.hwloc_binding_hooks, %struct.hwloc_topology_support, %struct.hwloc_infos_s, ptr, ptr, i32, ptr, ptr, i32, i32, ptr, i32, i32, ptr, i32, i32, i32, [5 x float], i32, ptr, ptr, i32, i32, ptr, i32, %struct.hwloc_numanode_attr_s, i32, i32, ptr, i64, i32, ptr, ptr, ptr }
%struct.hwloc_special_level_s = type { i32, ptr, ptr, ptr }
%struct.hwloc_binding_hooks = type { ptr, ptr, ptr, ptr, ptr, ptr, ptr, ptr, ptr, ptr, ptr, ptr, ptr, ptr, ptr, ptr, ptr, ptr, ptr, ptr, ptr, ptr, ptr, ptr }
%struct.hwloc_topology_support = type { ptr, ptr, ptr, ptr }
%struct.hwloc_infos_s = type { ptr, i32, i32 }
%struct.hwloc_numanode_attr_s = type { i64, i32, ptr }
%struct.hwloc_obj = type { i32, ptr, i32, ptr, i64, ptr, i32, i32, ptr, ptr, ptr, i32, ptr, ptr, i32, ptr, ptr, ptr, i32, i32, ptr, i32, ptr, i32, ptr, ptr, ptr, ptr, ptr, %struct.hwloc_infos_s, ptr, i64 }

; Function Attrs: nounwind uwtable
define i32 @hwloc_get_largest_objs_inside_cpuset(ptr noundef %0, ptr noundef %1, ptr noundef %2, i32 noundef %3) #0 {
  %5 = alloca i32, align 4
  %6 = alloca ptr, align 8
  %7 = alloca ptr, align 8
  %8 = alloca ptr, align 8
  %9 = alloca i32, align 4
  %10 = alloca ptr, align 8
  %11 = alloca i32, align 4
  store ptr %0, ptr %6, align 8, !tbaa !3
  store ptr %1, ptr %7, align 8, !tbaa !60
  store ptr %2, ptr %8, align 8, !tbaa !35
  store i32 %3, ptr %9, align 4, !tbaa !8
  call void @llvm.lifetime.start.p0(i64 8, ptr %10) #10
  %12 = load ptr, ptr %6, align 8, !tbaa !3
  %13 = getelementptr inbounds nuw %struct.hwloc_topology, ptr %12, i32 0, i32 4
  %14 = load ptr, ptr %13, align 8, !tbaa !34
  %15 = getelementptr inbounds ptr, ptr %14, i64 0
  %16 = load ptr, ptr %15, align 8, !tbaa !35
  %17 = getelementptr inbounds ptr, ptr %16, i64 0
  %18 = load ptr, ptr %17, align 8, !tbaa !37
  store ptr %18, ptr %10, align 8, !tbaa !37
  %19 = load ptr, ptr %7, align 8, !tbaa !60
  %20 = load ptr, ptr %10, align 8, !tbaa !37
  %21 = getelementptr inbounds nuw %struct.hwloc_obj, ptr %20, i32 0, i32 25
  %22 = load ptr, ptr %21, align 8, !tbaa !57
  %23 = call i32 @hwloc_bitmap_isincluded(ptr noundef %19, ptr noundef %22) #11
  %24 = icmp ne i32 %23, 0
  br i1 %24, label %26, label %25

25:                                               ; preds = %4
  store i32 -1, ptr %5, align 4
  store i32 1, ptr %11, align 4
  br label %34

26:                                               ; preds = %4
  %27 = load i32, ptr %9, align 4, !tbaa !8
  %28 = icmp sle i32 %27, 0
  br i1 %28, label %29, label %30

29:                                               ; preds = %26
  store i32 0, ptr %5, align 4
  store i32 1, ptr %11, align 4
  br label %34

30:                                               ; preds = %26
  %31 = load ptr, ptr %10, align 8, !tbaa !37
  %32 = load ptr, ptr %7, align 8, !tbaa !60
  %33 = call i32 @hwloc__get_largest_objs_inside_cpuset(ptr noundef %31, ptr noundef %32, ptr noundef %8, ptr noundef %9)
  store i32 %33, ptr %5, align 4
  store i32 1, ptr %11, align 4
  br label %34

34:                                               ; preds = %30, %29, %25
  call void @llvm.lifetime.end.p0(i64 8, ptr %10) #10
  %35 = load i32, ptr %5, align 4
  ret i32 %35
}