; Function Attrs: nounwind uwtable
define i32 @hwloc_get_largest_objs_inside_cpuset(ptr noundef readonly captures(none) %0, ptr noundef %1, ptr noundef %2, i32 noundef %3) local_unnamed_addr #7 {
  %5 = alloca ptr, align 8
  %6 = alloca i32, align 4
  store ptr %2, ptr %5, align 8, !tbaa !33
  store i32 %3, ptr %6, align 4, !tbaa !3
  %7 = getelementptr inbounds nuw i8, ptr %0, i64 24
  %8 = load ptr, ptr %7, align 8, !tbaa !32
  %9 = load ptr, ptr %8, align 8, !tbaa !33
  %10 = load ptr, ptr %9, align 8, !tbaa !35
  %11 = getelementptr inbounds nuw i8, ptr %10, i64 184
  %12 = load ptr, ptr %11, align 8, !tbaa !53
  %13 = tail call i32 @hwloc_bitmap_isincluded(ptr noundef %1, ptr noundef %12) #19
  %.not = icmp eq i32 %13, 0
  br i1 %.not, label %18, label %14

14:                                               ; preds = %4
  %15 = icmp slt i32 %3, 1
  br i1 %15, label %18, label %16

16:                                               ; preds = %14
  %17 = call fastcc i32 @hwloc__get_largest_objs_inside_cpuset(ptr noundef nonnull %10, ptr noundef %1, ptr noundef %5, ptr noundef %6)
  br label %18

18:                                               ; preds = %14, %4, %16
  %.0 = phi i32 [ %17, %16 ], [ -1, %4 ], [ 0, %14 ]
  ret i32 %.0
}